target datalayout = "e-m:e-p270:32:32-p271:32:32-p272:64:64-i64:64-i128:128-f80:128-n8:16:32:64-S128"
target triple = "x86_64-pc-linux-gnu"

%struct.anon = type { i32, [6 x i8], i32, i32, i32, i32 }
%struct.AVCodecParameters = type { i32, i32, i32, ptr, i32, ptr, i32, i32, i64, i32, i32, i32, i32, i32, i32, %struct.AVRational, %struct.AVRational, i32, i32, i32, i32, i32, i32, i32, %struct.AVChannelLayout, i32, i32, i32, i32, i32, i32 }
%struct.AVRational = type { i32, i32 }
%struct.AVChannelLayout = type { i32, i32, %union.anon, ptr }
%union.anon = type { i64 }
%struct.AVFormatContext = type { ptr, ptr, ptr, ptr, ptr, i32, i32, ptr, i32, ptr, i32, ptr, ptr, i64, i64, i64, i32, i32, i32, i64, i64, ptr, i32, i32, ptr, i32, i32, i32, i32, ptr, i64, i32, i32, %struct.AVIOInterruptCB, i32, i32, i32, i32, i64, i32, i32, i32, i32, i32, i32, i32, i32, i32, i32, i32, i32, i64, i32, i32, i32, i32, i32, ptr, ptr, ptr, ptr, i32, ptr, ptr, ptr, ptr, i32, ptr, ptr, i64, ptr, ptr, ptr, i64 }
%struct.AVIOInterruptCB = type { ptr, ptr }
%struct.AVOutputFormat = type { ptr, ptr, ptr, ptr, i32, i32, i32, i32, ptr, ptr }

@.str = private unnamed_addr constant [13 x i8] c"payload_type\00", align 1
@.str.1 = private unnamed_addr constant [9 x i8] c"rtpflags\00", align 1
@.str.2 = private unnamed_addr constant [8 x i8] c"rfc2190\00", align 1

; Function Attrs: nounwind uwtable
define i32 @ff_rtp_get_payload_type(ptr noundef %0, ptr noundef %1, i32 noundef %2) #0 {
  %4 = alloca i32, align 4
  %5 = alloca ptr, align 8
  %6 = alloca ptr, align 8
  %7 = alloca i32, align 4
  %8 = alloca i32, align 4
  %9 = alloca ptr, align 8
  %10 = alloca i64, align 8
  %11 = alloca i32, align 4
  store ptr %0, ptr %5, align 8, !tbaa !30
  store ptr %1, ptr %6, align 8, !tbaa !4
  store i32 %2, ptr %7, align 4, !tbaa !9
  call void @llvm.lifetime.start.p0(i64 4, ptr %8) #3
  call void @llvm.lifetime.start.p0(i64 8, ptr %9) #3
  %12 = load ptr, ptr %5, align 8, !tbaa !30
  %13 = icmp ne ptr %12, null
  br i1 %13, label %14, label %18

14:                                               ; preds = %3
  %15 = load ptr, ptr %5, align 8, !tbaa !30
  %16 = getelementptr inbounds nuw %struct.AVFormatContext, ptr %15, i32 0, i32 2
  %17 = load ptr, ptr %16, align 8, !tbaa !32
  br label %19

18:                                               ; preds = %3
  br label %19

19:                                               ; preds = %18, %14
  %20 = phi ptr [ %17, %14 ], [ null, %18 ]
  store ptr %20, ptr %9, align 8, !tbaa !46
  %21 = load ptr, ptr %9, align 8, !tbaa !46
  %22 = icmp ne ptr %21, null
  br i1 %22, label %23, label %49

23:                                               ; preds = %19
  %24 = load ptr, ptr %9, align 8, !tbaa !46
  %25 = getelementptr inbounds nuw %struct.AVOutputFormat, ptr %24, i32 0, i32 9
  %26 = load ptr, ptr %25, align 8, !tbaa !47
  %27 = icmp ne ptr %26, null
  br i1 %27, label %28, label %49

28:                                               ; preds = %23
  %29 = load ptr, ptr %5, align 8, !tbaa !30
  %30 = getelementptr inbounds nuw %struct.AVFormatContext, ptr %29, i32 0, i32 3
  %31 = load ptr, ptr %30, align 8, !tbaa !50
  %32 = icmp ne ptr %31, null
  br i1 %32, label %33, label %49

33:                                               ; preds = %28
  call void @llvm.lifetime.start.p0(i64 8, ptr %10) #3
  %34 = load ptr, ptr %5, align 8, !tbaa !30
  %35 = getelementptr inbounds nuw %struct.AVFormatContext, ptr %34, i32 0, i32 3
  %36 = load ptr, ptr %35, align 8, !tbaa !50
  %37 = call i32 @av_opt_get_int(ptr noundef %36, ptr noundef @.str, i32 noundef 0, ptr noundef %10)
  %38 = icmp sge i32 %37, 0
  br i1 %38, label %39, label %45

39:                                               ; preds = %33
  %40 = load i64, ptr %10, align 8, !tbaa !51
  %41 = icmp sge i64 %40, 0
  br i1 %41, label %42, label %45

42:                                               ; preds = %39
  %43 = load i64, ptr %10, align 8, !tbaa !51
  %44 = trunc i64 %43 to i32
  store i32 %44, ptr %4, align 4
  store i32 1, ptr %11, align 4
  br label %46

45:                                               ; preds = %39, %33
  store i32 0, ptr %11, align 4
  br label %46

46:                                               ; preds = %45, %42
  call void @llvm.lifetime.end.p0(i64 8, ptr %10) #3
  %47 = load i32, ptr %11, align 4
  switch i32 %47, label %184 [
    i32 0, label %48
  ]

48:                                               ; preds = %46
  br label %49

49:                                               ; preds = %48, %28, %23, %19
  store i32 0, ptr %8, align 4, !tbaa !9
  br label %50

50:                                               ; preds = %169, %49
  %51 = load i32, ptr %8, align 4, !tbaa !9
  %52 = sext i32 %51 to i64
  %53 = getelementptr inbounds [27 x %struct.anon], ptr @rtp_payload_types, i64 0, i64 %52
  %54 = getelementptr inbounds nuw %struct.anon, ptr %53, i32 0, i32 0
  %55 = load i32, ptr %54, align 4, !tbaa !11
  %56 = icmp sge i32 %55, 0
  br i1 %56, label %57, label %172

57:                                               ; preds = %50
  %58 = load i32, ptr %8, align 4, !tbaa !9
  %59 = sext i32 %58 to i64
  %60 = getelementptr inbounds [27 x %struct.anon], ptr @rtp_payload_types, i64 0, i64 %59
  %61 = getelementptr inbounds nuw %struct.anon, ptr %60, i32 0, i32 3
  %62 = load i32, ptr %61, align 4, !tbaa !13
  %63 = load ptr, ptr %6, align 8, !tbaa !4
  %64 = getelementptr inbounds nuw %struct.AVCodecParameters, ptr %63, i32 0, i32 1
  %65 = load i32, ptr %64, align 4, !tbaa !22
  %66 = icmp eq i32 %62, %65
  br i1 %66, label %67, label %168

67:                                               ; preds = %57
  %68 = load ptr, ptr %6, align 8, !tbaa !4
  %69 = getelementptr inbounds nuw %struct.AVCodecParameters, ptr %68, i32 0, i32 1
  %70 = load i32, ptr %69, align 4, !tbaa !22
  %71 = icmp eq i32 %70, 4
  br i1 %71, label %72, label %99

72:                                               ; preds = %67
  %73 = load ptr, ptr %5, align 8, !tbaa !30
  %74 = icmp ne ptr %73, null
  br i1 %74, label %75, label %98

75:                                               ; preds = %72
  %76 = load ptr, ptr %5, align 8, !tbaa !30
  %77 = getelementptr inbounds nuw %struct.AVFormatContext, ptr %76, i32 0, i32 2
  %78 = load ptr, ptr %77, align 8, !tbaa !32
  %79 = icmp ne ptr %78, null
  br i1 %79, label %80, label %98

80:                                               ; preds = %75
  %81 = load ptr, ptr %5, align 8, !tbaa !30
  %82 = getelementptr inbounds nuw %struct.AVFormatContext, ptr %81, i32 0, i32 2
  %83 = load ptr, ptr %82, align 8, !tbaa !32
  %84 = getelementptr inbounds nuw %struct.AVOutputFormat, ptr %83, i32 0, i32 9
  %85 = load ptr, ptr %84, align 8, !tbaa !47
  %86 = icmp ne ptr %85, null
  br i1 %86, label %87, label %98

87:                                               ; preds = %80
  %88 = load ptr, ptr %5, align 8, !tbaa !30
  %89 = getelementptr inbounds nuw %struct.AVFormatContext, ptr %88, i32 0, i32 3
  %90 = load ptr, ptr %89, align 8, !tbaa !50
  %91 = icmp ne ptr %90, null
  br i1 %91, label %92, label %98

92:                                               ; preds = %87
  %93 = load ptr, ptr %5, align 8, !tbaa !30
  %94 = getelementptr inbounds nuw %struct.AVFormatContext, ptr %93, i32 0, i32 3
  %95 = load ptr, ptr %94, align 8, !tbaa !50
  %96 = call i32 @av_opt_flag_is_set(ptr noundef %95, ptr noundef @.str.1, ptr noundef @.str.2)
  %97 = icmp ne i32 %96, 0
  br i1 %97, label %99, label %98

98:                                               ; preds = %92, %87, %80, %75, %72
  br label %169

99:                                               ; preds = %92, %67
  %100 = load ptr, ptr %6, align 8, !tbaa !4
  %101 = getelementptr inbounds nuw %struct.AVCodecParameters, ptr %100, i32 0, i32 1
  %102 = load i32, ptr %101, align 4, !tbaa !22
  %103 = icmp eq i32 %102, 69660
  br i1 %103, label %104, label %121

104:                                              ; preds = %99
  %105 = load ptr, ptr %6, align 8, !tbaa !4
  %106 = getelementptr inbounds nuw %struct.AVCodecParameters, ptr %105, i32 0, i32 25
  %107 = load i32, ptr %106, align 8, !tbaa !27
  %108 = icmp eq i32 %107, 16000
  br i1 %108, label %109, label %121

109:                                              ; preds = %104
  %110 = load ptr, ptr %6, align 8, !tbaa !4
  %111 = getelementptr inbounds nuw %struct.AVCodecParameters, ptr %110, i32 0, i32 24
  %112 = getelementptr inbounds nuw %struct.AVChannelLayout, ptr %111, i32 0, i32 1
  %113 = load i32, ptr %112, align 4, !tbaa !25
  %114 = icmp eq i32 %113, 1
  br i1 %114, label %115, label %121

115:                                              ; preds = %109
  %116 = load i32, ptr %8, align 4, !tbaa !9
  %117 = sext i32 %116 to i64
  %118 = getelementptr inbounds [27 x %struct.anon], ptr @rtp_payload_types, i64 0, i64 %117
  %119 = getelementptr inbounds nuw %struct.anon, ptr %118, i32 0, i32 0
  %120 = load i32, ptr %119, align 4, !tbaa !11
  store i32 %120, ptr %4, align 4
  store i32 1, ptr %11, align 4
  br label %184

121:                                              ; preds = %109, %104, %99
  %122 = load ptr, ptr %6, align 8, !tbaa !4
  %123 = getelementptr inbounds nuw %struct.AVCodecParameters, ptr %122, i32 0, i32 0
  %124 = load i32, ptr %123, align 8, !tbaa !15
  %125 = icmp eq i32 %124, 1
  br i1 %125, label %126, label %162

126:                                              ; preds = %121
  %127 = load i32, ptr %8, align 4, !tbaa !9
  %128 = sext i32 %127 to i64
  %129 = getelementptr inbounds [27 x %struct.anon], ptr @rtp_payload_types, i64 0, i64 %128
  %130 = getelementptr inbounds nuw %struct.anon, ptr %129, i32 0, i32 4
  %131 = load i32, ptr %130, align 4, !tbaa !26
  %132 = icmp sgt i32 %131, 0
  br i1 %132, label %133, label %143

133:                                              ; preds = %126
  %134 = load ptr, ptr %6, align 8, !tbaa !4
  %135 = getelementptr inbounds nuw %struct.AVCodecParameters, ptr %134, i32 0, i32 25
  %136 = load i32, ptr %135, align 8, !tbaa !27
  %137 = load i32, ptr %8, align 4, !tbaa !9
  %138 = sext i32 %137 to i64
  %139 = getelementptr inbounds [27 x %struct.anon], ptr @rtp_payload_types, i64 0, i64 %138
  %140 = getelementptr inbounds nuw %struct.anon, ptr %139, i32 0, i32 4
  %141 = load i32, ptr %140, align 4, !tbaa !26
  %142 = icmp ne i32 %136, %141
  br i1 %142, label %161, label %143

143:                                              ; preds = %133, %126
  %144 = load i32, ptr %8, align 4, !tbaa !9
  %145 = sext i32 %144 to i64
  %146 = getelementptr inbounds [27 x %struct.anon], ptr @rtp_payload_types, i64 0, i64 %145
  %147 = getelementptr inbounds nuw %struct.anon, ptr %146, i32 0, i32 5
  %148 = load i32, ptr %147, align 4, !tbaa !23
  %149 = icmp sgt i32 %148, 0
  br i1 %149, label %150, label %162

150:                                              ; preds = %143
  %151 = load ptr, ptr %6, align 8, !tbaa !4
  %152 = getelementptr inbounds nuw %struct.AVCodecParameters, ptr %151, i32 0, i32 24
  %153 = getelementptr inbounds nuw %struct.AVChannelLayout, ptr %152, i32 0, i32 1
  %154 = load i32, ptr %153, align 4, !tbaa !25
  %155 = load i32, ptr %8, align 4, !tbaa !9
  %156 = sext i32 %155 to i64
  %157 = getelementptr inbounds [27 x %struct.anon], ptr @rtp_payload_types, i64 0, i64 %156
  %158 = getelementptr inbounds nuw %struct.anon, ptr %157, i32 0, i32 5
  %159 = load i32, ptr %158, align 4, !tbaa !23
  %160 = icmp ne i32 %154, %159
  br i1 %160, label %161, label %162

161:                                              ; preds = %150, %133
  br label %169

162:                                              ; preds = %150, %143, %121
  %163 = load i32, ptr %8, align 4, !tbaa !9
  %164 = sext i32 %163 to i64
  %165 = getelementptr inbounds [27 x %struct.anon], ptr @rtp_payload_types, i64 0, i64 %164
  %166 = getelementptr inbounds nuw %struct.anon, ptr %165, i32 0, i32 0
  %167 = load i32, ptr %166, align 4, !tbaa !11
  store i32 %167, ptr %4, align 4
  store i32 1, ptr %11, align 4
  br label %184

168:                                              ; preds = %57
  br label %169

169:                                              ; preds = %168, %161, %98
  %170 = load i32, ptr %8, align 4, !tbaa !9
  %171 = add nsw i32 %170, 1
  store i32 %171, ptr %8, align 4, !tbaa !9
  br label %50, !llvm.loop !52

172:                                              ; preds = %50
  %173 = load i32, ptr %7, align 4, !tbaa !9
  %174 = icmp slt i32 %173, 0
  br i1 %174, label %175, label %181

175:                                              ; preds = %172
  %176 = load ptr, ptr %6, align 8, !tbaa !4
  %177 = getelementptr inbounds nuw %struct.AVCodecParameters, ptr %176, i32 0, i32 0
  %178 = load i32, ptr %177, align 8, !tbaa !15
  %179 = icmp eq i32 %178, 1
  %180 = zext i1 %179 to i32
  store i32 %180, ptr %7, align 4, !tbaa !9
  br label %181

181:                                              ; preds = %175, %172
  %182 = load i32, ptr %7, align 4, !tbaa !9
  %183 = add nsw i32 96, %182
  store i32 %183, ptr %4, align 4
  store i32 1, ptr %11, align 4
  br label %184

184:                                              ; preds = %181, %162, %115, %46
  call void @llvm.lifetime.end.p0(i64 8, ptr %9) #3
  call void @llvm.lifetime.end.p0(i64 4, ptr %8) #3
  %185 = load i32, ptr %4, align 4
  ret i32 %185
}