; Function Attrs: nounwind uwtable
define i32 @ff_rtp_get_payload_type(ptr noundef readonly captures(address_is_null) %0, ptr noundef readonly captures(none) %1, i32 noundef %2) local_unnamed_addr #0 {
  %4 = alloca i64, align 8
  %.not = icmp eq ptr %0, null
  br i1 %.not, label %.thread.split.us, label %5

5:                                                ; preds = %3
  %6 = getelementptr inbounds nuw i8, ptr %0, i64 16
  %7 = load ptr, ptr %6, align 8, !tbaa !27
  %.not46 = icmp eq ptr %7, null
  br i1 %.not46, label %.thread.split.preheader, label %8

8:                                                ; preds = %5
  %9 = getelementptr inbounds nuw i8, ptr %7, i64 56
  %10 = load ptr, ptr %9, align 8, !tbaa !41
  %.not47 = icmp eq ptr %10, null
  br i1 %.not47, label %.thread.split.preheader, label %11

11:                                               ; preds = %8
  %12 = getelementptr inbounds nuw i8, ptr %0, i64 24
  %13 = load ptr, ptr %12, align 8, !tbaa !44
  %.not48 = icmp eq ptr %13, null
  br i1 %.not48, label %.thread.split.preheader, label %14

14:                                               ; preds = %11
  call void @llvm.lifetime.start.p0(i64 8, ptr nonnull %4) #4
  %15 = call i32 @av_opt_get_int(ptr noundef nonnull %13, ptr noundef nonnull @.str, i32 noundef 0, ptr noundef nonnull %4) #4
  %16 = icmp slt i32 %15, 0
  %17 = load i64, ptr %4, align 8
  %18 = icmp slt i64 %17, 0
  %or.cond.not = select i1 %16, i1 true, i1 %18
  %19 = trunc i64 %17 to i32
  call void @llvm.lifetime.end.p0(i64 8, ptr nonnull %4) #4
  br i1 %or.cond.not, label %.thread.split.preheader, label %.loopexit

.thread.split.preheader:                          ; preds = %14, %11, %8, %5
  %20 = getelementptr inbounds nuw i8, ptr %1, i64 4
  %21 = getelementptr inbounds nuw i8, ptr %0, i64 16
  %22 = getelementptr inbounds nuw i8, ptr %0, i64 24
  %23 = getelementptr inbounds nuw i8, ptr %1, i64 152
  %24 = getelementptr inbounds nuw i8, ptr %1, i64 132
  br label %.thread.split

.thread.split.us:                                 ; preds = %3
  %25 = getelementptr inbounds nuw i8, ptr %1, i64 4
  %26 = getelementptr inbounds nuw i8, ptr %1, i64 152
  %27 = getelementptr inbounds nuw i8, ptr %1, i64 132
  %28 = load i32, ptr %25, align 4, !tbaa !18
  %.fr64 = freeze i32 %28
  switch i32 %.fr64, label %.thread.split.us.split.split [
    i32 4, label %.split.us
    i32 69660, label %.thread.split.us.split.split.us
  ]

.thread.split.us.split.split.us:                  ; preds = %.thread.split.us, %53
  %indvars.iv80 = phi i64 [ %indvars.iv.next81, %53 ], [ 0, %.thread.split.us ]
  %29 = phi i32 [ %55, %53 ], [ 0, %.thread.split.us ]
  %30 = phi ptr [ %54, %53 ], [ @rtp_payload_types, %.thread.split.us ]
  %31 = getelementptr inbounds nuw i8, ptr %30, i64 16
  %32 = load i32, ptr %31, align 4, !tbaa !4
  %33 = icmp eq i32 %32, 69660
  br i1 %33, label %34, label %53

34:                                               ; preds = %.thread.split.us.split.split.us
  %35 = load i32, ptr %26, align 8, !tbaa !23
  %36 = icmp eq i32 %35, 16000
  br i1 %36, label %37, label %40

37:                                               ; preds = %34
  %38 = load i32, ptr %27, align 4, !tbaa !21
  %39 = icmp eq i32 %38, 1
  br i1 %39, label %.loopexit, label %40

40:                                               ; preds = %37, %34
  %41 = load i32, ptr %1, align 8, !tbaa !10
  %42 = icmp eq i32 %41, 1
  br i1 %42, label %43, label %.loopexit

43:                                               ; preds = %40
  %44 = getelementptr inbounds nuw i8, ptr %30, i64 20
  %45 = load i32, ptr %44, align 4, !tbaa !22
  %46 = icmp slt i32 %45, 1
  %.not55.us.us = icmp eq i32 %35, %45
  %or.cond = or i1 %46, %.not55.us.us
  br i1 %or.cond, label %47, label %53

47:                                               ; preds = %43
  %48 = getelementptr inbounds nuw i8, ptr %30, i64 24
  %49 = load i32, ptr %48, align 4, !tbaa !19
  %50 = icmp sgt i32 %49, 0
  br i1 %50, label %51, label %.loopexit

51:                                               ; preds = %47
  %52 = load i32, ptr %27, align 4, !tbaa !21
  %.not56.us.us = icmp eq i32 %52, %49
  br i1 %.not56.us.us, label %.loopexit, label %53

53:                                               ; preds = %43, %51, %.thread.split.us.split.split.us
  %indvars.iv.next81 = add nuw nsw i64 %indvars.iv80, 1
  %54 = getelementptr inbounds nuw [27 x %struct.anon], ptr @rtp_payload_types, i64 0, i64 %indvars.iv.next81
  %55 = load i32, ptr %54, align 4, !tbaa !24
  %exitcond83.not = icmp eq i64 %indvars.iv.next81, 26
  br i1 %exitcond83.not, label %.split.us, label %.thread.split.us.split.split.us, !llvm.loop !45

.thread.split.us.split.split:                     ; preds = %.thread.split.us, %76
  %indvars.iv76 = phi i64 [ %indvars.iv.next77, %76 ], [ 0, %.thread.split.us ]
  %56 = phi i32 [ %78, %76 ], [ 0, %.thread.split.us ]
  %57 = phi ptr [ %77, %76 ], [ @rtp_payload_types, %.thread.split.us ]
  %58 = getelementptr inbounds nuw i8, ptr %57, i64 16
  %59 = load i32, ptr %58, align 4, !tbaa !4
  %60 = icmp eq i32 %59, %.fr64
  br i1 %60, label %61, label %76

61:                                               ; preds = %.thread.split.us.split.split
  %62 = load i32, ptr %1, align 8, !tbaa !10
  %63 = icmp eq i32 %62, 1
  br i1 %63, label %64, label %.loopexit

64:                                               ; preds = %61
  %65 = getelementptr inbounds nuw i8, ptr %57, i64 20
  %66 = load i32, ptr %65, align 4, !tbaa !22
  %67 = icmp sgt i32 %66, 0
  br i1 %67, label %68, label %70

68:                                               ; preds = %64
  %69 = load i32, ptr %26, align 8, !tbaa !23
  %.not55.us = icmp eq i32 %69, %66
  br i1 %.not55.us, label %70, label %76

70:                                               ; preds = %68, %64
  %71 = getelementptr inbounds nuw i8, ptr %57, i64 24
  %72 = load i32, ptr %71, align 4, !tbaa !19
  %73 = icmp sgt i32 %72, 0
  br i1 %73, label %74, label %.loopexit

74:                                               ; preds = %70
  %75 = load i32, ptr %27, align 4, !tbaa !21
  %.not56.us = icmp eq i32 %75, %72
  br i1 %.not56.us, label %.loopexit, label %76

76:                                               ; preds = %74, %68, %.thread.split.us.split.split
  %indvars.iv.next77 = add nuw nsw i64 %indvars.iv76, 1
  %77 = getelementptr inbounds nuw [27 x %struct.anon], ptr @rtp_payload_types, i64 0, i64 %indvars.iv.next77
  %78 = load i32, ptr %77, align 4, !tbaa !24
  %exitcond79.not = icmp eq i64 %indvars.iv.next77, 26
  br i1 %exitcond79.not, label %.split.us, label %.thread.split.us.split.split, !llvm.loop !45

.thread.split:                                    ; preds = %.thread.split.preheader, %120
  %indvars.iv = phi i64 [ 0, %.thread.split.preheader ], [ %indvars.iv.next, %120 ]
  %79 = phi i32 [ 0, %.thread.split.preheader ], [ %122, %120 ]
  %80 = phi ptr [ @rtp_payload_types, %.thread.split.preheader ], [ %121, %120 ]
  %81 = getelementptr inbounds nuw i8, ptr %80, i64 16
  %82 = load i32, ptr %81, align 4, !tbaa !4
  %83 = load i32, ptr %20, align 4, !tbaa !18
  %84 = icmp eq i32 %82, %83
  br i1 %84, label %85, label %120

85:                                               ; preds = %.thread.split
  %86 = icmp eq i32 %82, 4
  br i1 %86, label %87, label %96

87:                                               ; preds = %85
  %88 = load ptr, ptr %21, align 8, !tbaa !27
  %.not51 = icmp eq ptr %88, null
  br i1 %.not51, label %120, label %89

89:                                               ; preds = %87
  %90 = getelementptr inbounds nuw i8, ptr %88, i64 56
  %91 = load ptr, ptr %90, align 8, !tbaa !41
  %.not52 = icmp eq ptr %91, null
  br i1 %.not52, label %120, label %92

92:                                               ; preds = %89
  %93 = load ptr, ptr %22, align 8, !tbaa !44
  %.not53 = icmp eq ptr %93, null
  br i1 %.not53, label %120, label %94

94:                                               ; preds = %92
  %95 = call i32 @av_opt_flag_is_set(ptr noundef nonnull %93, ptr noundef nonnull @.str.1, ptr noundef nonnull @.str.2) #4
  %.not54 = icmp eq i32 %95, 0
  br i1 %.not54, label %120, label %thread-pre-split

thread-pre-split:                                 ; preds = %94
  %.pr = load i32, ptr %20, align 4, !tbaa !18
  br label %96

96:                                               ; preds = %thread-pre-split, %85
  %97 = phi i32 [ %.pr, %thread-pre-split ], [ %82, %85 ]
  %98 = icmp eq i32 %97, 69660
  br i1 %98, label %99, label %105

99:                                               ; preds = %96
  %100 = load i32, ptr %23, align 8, !tbaa !23
  %101 = icmp eq i32 %100, 16000
  br i1 %101, label %102, label %105

102:                                              ; preds = %99
  %103 = load i32, ptr %24, align 4, !tbaa !21
  %104 = icmp eq i32 %103, 1
  br i1 %104, label %.loopexit, label %105

105:                                              ; preds = %102, %99, %96
  %106 = load i32, ptr %1, align 8, !tbaa !10
  %107 = icmp eq i32 %106, 1
  br i1 %107, label %108, label %.loopexit

108:                                              ; preds = %105
  %109 = getelementptr inbounds nuw i8, ptr %80, i64 20
  %110 = load i32, ptr %109, align 4, !tbaa !22
  %111 = icmp sgt i32 %110, 0
  br i1 %111, label %112, label %114

112:                                              ; preds = %108
  %113 = load i32, ptr %23, align 8, !tbaa !23
  %.not55 = icmp eq i32 %113, %110
  br i1 %.not55, label %114, label %120

114:                                              ; preds = %112, %108
  %115 = getelementptr inbounds nuw i8, ptr %80, i64 24
  %116 = load i32, ptr %115, align 4, !tbaa !19
  %117 = icmp sgt i32 %116, 0
  br i1 %117, label %118, label %.loopexit

118:                                              ; preds = %114
  %119 = load i32, ptr %24, align 4, !tbaa !21
  %.not56 = icmp eq i32 %119, %116
  br i1 %.not56, label %.loopexit, label %120

120:                                              ; preds = %.thread.split, %112, %118, %87, %89, %92, %94
  %indvars.iv.next = add nuw nsw i64 %indvars.iv, 1
  %121 = getelementptr inbounds nuw [27 x %struct.anon], ptr @rtp_payload_types, i64 0, i64 %indvars.iv.next
  %122 = load i32, ptr %121, align 4, !tbaa !24
  %exitcond.not = icmp eq i64 %indvars.iv.next, 26
  br i1 %exitcond.not, label %.split.us, label %.thread.split, !llvm.loop !45

.split.us:                                        ; preds = %120, %53, %76, %.thread.split.us
  %123 = icmp slt i32 %2, 0
  br i1 %123, label %124, label %128

124:                                              ; preds = %.split.us
  %125 = load i32, ptr %1, align 8, !tbaa !10
  %126 = icmp eq i32 %125, 1
  %127 = zext i1 %126 to i32
  br label %128

128:                                              ; preds = %124, %.split.us
  %.035 = phi i32 [ %127, %124 ], [ %2, %.split.us ]
  %129 = add nuw nsw i32 %.035, 96
  br label %.loopexit

.loopexit:                                        ; preds = %102, %118, %114, %105, %37, %40, %47, %51, %61, %70, %74, %14, %128
  %.1 = phi i32 [ %129, %128 ], [ %19, %14 ], [ %56, %74 ], [ %56, %70 ], [ %56, %61 ], [ %29, %51 ], [ %29, %47 ], [ %29, %40 ], [ %29, %37 ], [ %79, %105 ], [ %79, %114 ], [ %79, %118 ], [ %79, %102 ]
  ret i32 %.1
}